target datalayout = "e-m:e-p270:32:32-p271:32:32-p272:64:64-i64:64-i128:128-f80:128-n8:16:32:64-S128"
target triple = "x86_64-unknown-linux-gnu"

%"class.node::TimerWrap" = type { %"class.node::MemoryRetainer", ptr, %"class.std::function", %struct.uv_timer_s }
%"class.node::MemoryRetainer" = type { ptr }
%"class.std::function" = type { %"class.std::_Function_base", ptr }
%"class.std::_Function_base" = type { %"union.std::_Any_data", ptr }
%"union.std::_Any_data" = type { %"union.std::_Nocopy_types" }
%"union.std::_Nocopy_types" = type { { i64, i64 } }
%struct.uv_timer_s = type { ptr, ptr, i32, ptr, %struct.uv__queue, %union.anon, ptr, i32, ptr, [3 x ptr], i64, i64, i64 }
%struct.uv__queue = type { ptr, ptr }
%union.anon = type { [4 x ptr] }
%class.anon = type { i8 }
%"class.node::Environment" = type { %"class.node::MemoryRetainer", %"class.std::unordered_multimap", %"class.std::__cxx11::list", ptr, ptr, %struct.uv_timer_s, %struct.uv_check_s, %struct.uv_idle_s, %struct.uv_prepare_s, %struct.uv_check_s, %struct.uv_async_s, i64, %"struct.std::atomic", %"struct.std::atomic", %"class.node::AsyncHooks", %"class.node::ImmediateInfo", %"class.node::AliasedBufferBase.19", %"class.node::TickInfo", %"class.node::permission::Permission", i64, %"class.std::shared_ptr", i8, i8, i8, i8, i8, i8, i64, %"class.std::vector.44", %"class.std::unordered_set", %"class.std::unique_ptr", %"class.std::unique_ptr.70", %"class.std::__cxx11::basic_string", %"class.std::__cxx11::basic_string", %"class.std::__cxx11::basic_string", i64, %"class.std::unique_ptr.82", %"class.std::__cxx11::basic_string", %"class.std::__cxx11::basic_string", i64, %"class.std::shared_ptr.90", %"class.std::shared_ptr.93", %"class.std::vector.96", %"class.std::vector.96", %"class.std::__cxx11::basic_string", i8, i32, i32, i8, i32, i32, i32, i32, %"class.node::AliasedBufferBase.19", %"class.node::AliasedBufferBase.9", i32, %"class.std::unique_ptr.101", %"class.node::AliasedBufferBase.19", i64, double, i64, %"class.std::unique_ptr.109", i8, i64, i64, %"class.std::unordered_set.117", %"class.std::unique_ptr.137", i8, %"class.std::__cxx11::list.145", %"class.node::ListHead", %"class.node::ListHead.150", %"class.std::__cxx11::list.152", i32, i32, %"class.node::EnabledDebugList", %"class.std::vector.157", %"class.std::__cxx11::list.162", %"class.node::MutexBase", %"class.std::__cxx11::list.167", %"class.node::CallbackQueue", %"class.node::MutexBase", %"class.node::CallbackQueue", %"class.node::CallbackQueue", i8, %"struct.std::atomic.182", %"class.node::CleanupQueue", i8, %"class.std::unordered_set.200", %"class.std::function.214", %"class.std::unique_ptr.217", %"class.node::builtins::BuiltinLoader", %"class.std::function.231", %"class.std::unordered_map.233" }
%"class.std::unordered_multimap" = type { %"class.std::_Hashtable" }
%"class.std::_Hashtable" = type { ptr, i64, %"struct.std::__detail::_Hash_node_base", i64, %"struct.std::__detail::_Prime_rehash_policy", ptr }
%"struct.std::__detail::_Hash_node_base" = type { ptr }
%"struct.std::__detail::_Prime_rehash_policy" = type { float, i64 }
%"class.std::__cxx11::list" = type { %"class.std::__cxx11::_List_base" }
%"class.std::__cxx11::_List_base" = type { %"struct.std::__cxx11::_List_base<node::binding::DLib, std::allocator<node::binding::DLib>>::_List_impl" }
%"struct.std::__cxx11::_List_base<node::binding::DLib, std::allocator<node::binding::DLib>>::_List_impl" = type { %"struct.std::__detail::_List_node_header" }
%"struct.std::__detail::_List_node_header" = type { %"struct.std::__detail::_List_node_base", i64 }
%"struct.std::__detail::_List_node_base" = type { ptr, ptr }
%struct.uv_idle_s = type { ptr, ptr, i32, ptr, %struct.uv__queue, %union.anon.6, ptr, i32, ptr, %struct.uv__queue }
%union.anon.6 = type { [4 x ptr] }
%struct.uv_prepare_s = type { ptr, ptr, i32, ptr, %struct.uv__queue, %union.anon.7, ptr, i32, ptr, %struct.uv__queue }
%union.anon.7 = type { [4 x ptr] }
%struct.uv_check_s = type { ptr, ptr, i32, ptr, %struct.uv__queue, %union.anon.5, ptr, i32, ptr, %struct.uv__queue }
%union.anon.5 = type { [4 x ptr] }
%struct.uv_async_s = type { ptr, ptr, i32, ptr, %struct.uv__queue, %union.anon.8, ptr, i32, ptr, %struct.uv__queue, i32 }
%union.anon.8 = type { [4 x ptr] }
%"struct.std::atomic" = type { %"struct.std::__atomic_base" }
%"struct.std::__atomic_base" = type { i8 }
%"class.node::AsyncHooks" = type { %"class.node::MemoryRetainer", %"class.node::AliasedBufferBase", %"class.node::AliasedBufferBase.9", %"class.node::AliasedBufferBase", %"class.v8::Global.12", %"class.std::vector", ptr, %"struct.std::array" }
%"class.node::AliasedBufferBase" = type { %"class.node::MemoryRetainer", ptr, i64, i64, ptr, %"class.v8::Global", ptr }
%"class.v8::Global" = type { %"class.v8::PersistentBase" }
%"class.v8::PersistentBase" = type { %"class.v8::IndirectHandleBase" }
%"class.v8::IndirectHandleBase" = type { ptr }
%"class.v8::Global.12" = type { %"class.v8::PersistentBase.13" }
%"class.v8::PersistentBase.13" = type { %"class.v8::IndirectHandleBase" }
%"class.std::vector" = type { %"struct.std::_Vector_base" }
%"struct.std::_Vector_base" = type { %"struct.std::_Vector_base<v8::Local<v8::Object>, std::allocator<v8::Local<v8::Object>>>::_Vector_impl" }
%"struct.std::_Vector_base<v8::Local<v8::Object>, std::allocator<v8::Local<v8::Object>>>::_Vector_impl" = type { %"struct.std::_Vector_base<v8::Local<v8::Object>, std::allocator<v8::Local<v8::Object>>>::_Vector_impl_data" }
%"struct.std::_Vector_base<v8::Local<v8::Object>, std::allocator<v8::Local<v8::Object>>>::_Vector_impl_data" = type { ptr, ptr, ptr }
%"struct.std::array" = type { [4 x %"class.v8::Global.17"] }
%"class.v8::Global.17" = type { %"class.v8::PersistentBase.18" }
%"class.v8::PersistentBase.18" = type { %"class.v8::IndirectHandleBase" }
%"class.node::ImmediateInfo" = type { %"class.node::MemoryRetainer", %"class.node::AliasedBufferBase.9" }
%"class.node::TickInfo" = type { %"class.node::MemoryRetainer", %"class.node::AliasedBufferBase.22" }
%"class.node::AliasedBufferBase.22" = type { %"class.node::MemoryRetainer", ptr, i64, i64, ptr, %"class.v8::Global.23", ptr }
%"class.v8::Global.23" = type { %"class.v8::PersistentBase.24" }
%"class.v8::PersistentBase.24" = type { %"class.v8::IndirectHandleBase" }
%"class.node::permission::Permission" = type <{ %"class.std::unordered_map", i8, [7 x i8] }>
%"class.std::unordered_map" = type { %"class.std::_Hashtable.25" }
%"class.std::_Hashtable.25" = type { ptr, i64, %"struct.std::__detail::_Hash_node_base", i64, %"struct.std::__detail::_Prime_rehash_policy", ptr }
%"class.std::shared_ptr" = type { %"class.std::__shared_ptr" }
%"class.std::__shared_ptr" = type { ptr, %"class.std::__shared_count" }
%"class.std::__shared_count" = type { ptr }
%"class.std::vector.44" = type { %"struct.std::_Vector_base.45" }
%"struct.std::_Vector_base.45" = type { %"struct.std::_Vector_base<double, std::allocator<double>>::_Vector_impl" }
%"struct.std::_Vector_base<double, std::allocator<double>>::_Vector_impl" = type { %"struct.std::_Vector_base<double, std::allocator<double>>::_Vector_impl_data" }
%"struct.std::_Vector_base<double, std::allocator<double>>::_Vector_impl_data" = type { ptr, ptr, ptr }
%"class.std::unordered_set" = type { %"class.std::_Hashtable.49" }
%"class.std::_Hashtable.49" = type { ptr, i64, %"struct.std::__detail::_Hash_node_base", i64, %"struct.std::__detail::_Prime_rehash_policy", ptr }
%"class.std::unique_ptr" = type { %"struct.std::__uniq_ptr_data" }
%"struct.std::__uniq_ptr_data" = type { %"class.std::__uniq_ptr_impl" }
%"class.std::__uniq_ptr_impl" = type { %"class.std::tuple" }
%"class.std::tuple" = type { %"struct.std::_Tuple_impl" }
%"struct.std::_Tuple_impl" = type { %"struct.std::_Head_base.69" }
%"struct.std::_Head_base.69" = type { ptr }
%"class.std::unique_ptr.70" = type { %"struct.std::__uniq_ptr_data.71" }
%"struct.std::__uniq_ptr_data.71" = type { %"class.std::__uniq_ptr_impl.72" }
%"class.std::__uniq_ptr_impl.72" = type { %"class.std::tuple.73" }
%"class.std::tuple.73" = type { %"struct.std::_Tuple_impl.74" }
%"struct.std::_Tuple_impl.74" = type { %"struct.std::_Head_base.77" }
%"struct.std::_Head_base.77" = type { ptr }
%"class.std::unique_ptr.82" = type { %"struct.std::__uniq_ptr_data.83" }
%"struct.std::__uniq_ptr_data.83" = type { %"class.std::__uniq_ptr_impl.84" }
%"class.std::__uniq_ptr_impl.84" = type { %"class.std::tuple.85" }
%"class.std::tuple.85" = type { %"struct.std::_Tuple_impl.86" }
%"struct.std::_Tuple_impl.86" = type { %"struct.std::_Head_base.89" }
%"struct.std::_Head_base.89" = type { ptr }
%"class.std::shared_ptr.90" = type { %"class.std::__shared_ptr.91" }
%"class.std::__shared_ptr.91" = type { ptr, %"class.std::__shared_count" }
%"class.std::shared_ptr.93" = type { %"class.std::__shared_ptr.94" }
%"class.std::__shared_ptr.94" = type { ptr, %"class.std::__shared_count" }
%"class.std::vector.96" = type { %"struct.std::_Vector_base.97" }
%"struct.std::_Vector_base.97" = type { %"struct.std::_Vector_base<std::__cxx11::basic_string<char>, std::allocator<std::__cxx11::basic_string<char>>>::_Vector_impl" }
%"struct.std::_Vector_base<std::__cxx11::basic_string<char>, std::allocator<std::__cxx11::basic_string<char>>>::_Vector_impl" = type { %"struct.std::_Vector_base<std::__cxx11::basic_string<char>, std::allocator<std::__cxx11::basic_string<char>>>::_Vector_impl_data" }
%"struct.std::_Vector_base<std::__cxx11::basic_string<char>, std::allocator<std::__cxx11::basic_string<char>>>::_Vector_impl_data" = type { ptr, ptr, ptr }
%"class.std::__cxx11::basic_string" = type { %"struct.std::__cxx11::basic_string<char>::_Alloc_hider", i64, %union.anon.81 }
%"struct.std::__cxx11::basic_string<char>::_Alloc_hider" = type { ptr }
%union.anon.81 = type { i64, [8 x i8] }
%"class.node::AliasedBufferBase.9" = type { %"class.node::MemoryRetainer", ptr, i64, i64, ptr, %"class.v8::Global.10", ptr }
%"class.v8::Global.10" = type { %"class.v8::PersistentBase.11" }
%"class.v8::PersistentBase.11" = type { %"class.v8::IndirectHandleBase" }
%"class.std::unique_ptr.101" = type { %"struct.std::__uniq_ptr_data.102" }
%"struct.std::__uniq_ptr_data.102" = type { %"class.std::__uniq_ptr_impl.103" }
%"class.std::__uniq_ptr_impl.103" = type { %"class.std::tuple.104" }
%"class.std::tuple.104" = type { %"struct.std::_Tuple_impl.105" }
%"struct.std::_Tuple_impl.105" = type { %"struct.std::_Head_base.108" }
%"struct.std::_Head_base.108" = type { ptr }
%"class.node::AliasedBufferBase.19" = type { %"class.node::MemoryRetainer", ptr, i64, i64, ptr, %"class.v8::Global.20", ptr }
%"class.v8::Global.20" = type { %"class.v8::PersistentBase.21" }
%"class.v8::PersistentBase.21" = type { %"class.v8::IndirectHandleBase" }
%"class.std::unique_ptr.109" = type { %"struct.std::__uniq_ptr_data.110" }
%"struct.std::__uniq_ptr_data.110" = type { %"class.std::__uniq_ptr_impl.111" }
%"class.std::__uniq_ptr_impl.111" = type { %"class.std::tuple.112" }
%"class.std::tuple.112" = type { %"struct.std::_Tuple_impl.113" }
%"struct.std::_Tuple_impl.113" = type { %"struct.std::_Head_base.116" }
%"struct.std::_Head_base.116" = type { ptr }
%"class.std::unordered_set.117" = type { %"class.std::_Hashtable.118" }
%"class.std::_Hashtable.118" = type { ptr, i64, %"struct.std::__detail::_Hash_node_base", i64, %"struct.std::__detail::_Prime_rehash_policy", ptr }
%"class.std::unique_ptr.137" = type { %"struct.std::__uniq_ptr_data.138" }
%"struct.std::__uniq_ptr_data.138" = type { %"class.std::__uniq_ptr_impl.139" }
%"class.std::__uniq_ptr_impl.139" = type { %"class.std::tuple.140" }
%"class.std::tuple.140" = type { %"struct.std::_Tuple_impl.141" }
%"struct.std::_Tuple_impl.141" = type { %"struct.std::_Head_base.144" }
%"struct.std::_Head_base.144" = type { ptr }
%"class.std::__cxx11::list.145" = type { %"class.std::__cxx11::_List_base.146" }
%"class.std::__cxx11::_List_base.146" = type { %"struct.std::__cxx11::_List_base<node::DeserializeRequest, std::allocator<node::DeserializeRequest>>::_List_impl" }
%"struct.std::__cxx11::_List_base<node::DeserializeRequest, std::allocator<node::DeserializeRequest>>::_List_impl" = type { %"struct.std::__detail::_List_node_header" }
%"class.node::ListHead" = type { %"class.node::ListNode" }
%"class.node::ListNode" = type { ptr, ptr }
%"class.node::ListHead.150" = type { %"class.node::ListNode.151" }
%"class.node::ListNode.151" = type { ptr, ptr }
%"class.std::__cxx11::list.152" = type { %"class.std::__cxx11::_List_base.153" }
%"class.std::__cxx11::_List_base.153" = type { %"struct.std::__cxx11::_List_base<node::Environment::HandleCleanup, std::allocator<node::Environment::HandleCleanup>>::_List_impl" }
%"struct.std::__cxx11::_List_base<node::Environment::HandleCleanup, std::allocator<node::Environment::HandleCleanup>>::_List_impl" = type { %"struct.std::__detail::_List_node_header" }
%"class.node::EnabledDebugList" = type { [75 x i8] }
%"class.std::vector.157" = type { %"struct.std::_Vector_base.158" }
%"struct.std::_Vector_base.158" = type { %"struct.std::_Vector_base<v8::Global<v8::Context>, std::allocator<v8::Global<v8::Context>>>::_Vector_impl" }
%"struct.std::_Vector_base<v8::Global<v8::Context>, std::allocator<v8::Global<v8::Context>>>::_Vector_impl" = type { %"struct.std::_Vector_base<v8::Global<v8::Context>, std::allocator<v8::Global<v8::Context>>>::_Vector_impl_data" }
%"struct.std::_Vector_base<v8::Global<v8::Context>, std::allocator<v8::Global<v8::Context>>>::_Vector_impl_data" = type { ptr, ptr, ptr }
%"class.std::__cxx11::list.162" = type { %"class.std::__cxx11::_List_base.163" }
%"class.std::__cxx11::_List_base.163" = type { %"struct.std::__cxx11::_List_base<node::node_module, std::allocator<node::node_module>>::_List_impl" }
%"struct.std::__cxx11::_List_base<node::node_module, std::allocator<node::node_module>>::_List_impl" = type { %"struct.std::__detail::_List_node_header" }
%"class.std::__cxx11::list.167" = type { %"class.std::__cxx11::_List_base.168" }
%"class.std::__cxx11::_List_base.168" = type { %"struct.std::__cxx11::_List_base<node::Environment::ExitCallback, std::allocator<node::Environment::ExitCallback>>::_List_impl" }
%"struct.std::__cxx11::_List_base<node::Environment::ExitCallback, std::allocator<node::Environment::ExitCallback>>::_List_impl" = type { %"struct.std::__detail::_List_node_header" }
%"class.node::MutexBase" = type { %union.pthread_mutex_t }
%union.pthread_mutex_t = type { %struct.__pthread_mutex_s }
%struct.__pthread_mutex_s = type { i32, i32, i32, i32, i32, i16, i16, %struct.__pthread_internal_list }
%struct.__pthread_internal_list = type { ptr, ptr }
%"class.node::CallbackQueue" = type { %"struct.std::atomic.172", %"class.std::unique_ptr.174", ptr }
%"struct.std::atomic.172" = type { %"struct.std::__atomic_base.173" }
%"struct.std::__atomic_base.173" = type { i64 }
%"class.std::unique_ptr.174" = type { %"struct.std::__uniq_ptr_data.175" }
%"struct.std::__uniq_ptr_data.175" = type { %"class.std::__uniq_ptr_impl.176" }
%"class.std::__uniq_ptr_impl.176" = type { %"class.std::tuple.177" }
%"class.std::tuple.177" = type { %"struct.std::_Tuple_impl.178" }
%"struct.std::_Tuple_impl.178" = type { %"struct.std::_Head_base.181" }
%"struct.std::_Head_base.181" = type { ptr }
%"struct.std::atomic.182" = type { %"struct.std::__atomic_base.183" }
%"struct.std::__atomic_base.183" = type { ptr }
%"class.node::CleanupQueue" = type { %"class.node::MemoryRetainer", %"class.std::unordered_set.184", i64 }
%"class.std::unordered_set.184" = type { %"class.std::_Hashtable.185" }
%"class.std::_Hashtable.185" = type { ptr, i64, %"struct.std::__detail::_Hash_node_base", i64, %"struct.std::__detail::_Prime_rehash_policy", ptr }
%"class.std::unordered_set.200" = type { %"class.std::_Hashtable.201" }
%"class.std::_Hashtable.201" = type { ptr, i64, %"struct.std::__detail::_Hash_node_base", i64, %"struct.std::__detail::_Prime_rehash_policy", ptr }
%"class.std::function.214" = type { %"class.std::_Function_base", ptr }
%"class.std::unique_ptr.217" = type { %"struct.std::__uniq_ptr_data.218" }
%"struct.std::__uniq_ptr_data.218" = type { %"class.std::__uniq_ptr_impl.219" }
%"class.std::__uniq_ptr_impl.219" = type { %"class.std::tuple.220" }
%"class.std::tuple.220" = type { %"struct.std::_Tuple_impl.221" }
%"struct.std::_Tuple_impl.221" = type { %"struct.std::_Head_base.224" }
%"struct.std::_Head_base.224" = type { ptr }
%"class.node::builtins::BuiltinLoader" = type { %"class.node::ThreadsafeCopyOnWrite", %"class.node::UnionBytes", %"class.std::shared_ptr.228" }
%"class.node::ThreadsafeCopyOnWrite" = type { %"class.node::CopyOnWrite" }
%"class.node::CopyOnWrite" = type { %"class.std::shared_ptr.225" }
%"class.std::shared_ptr.225" = type { %"class.std::__shared_ptr.226" }
%"class.std::__shared_ptr.226" = type { ptr, %"class.std::__shared_count" }
%"class.node::UnionBytes" = type { ptr, ptr }
%"class.std::shared_ptr.228" = type { %"class.std::__shared_ptr.229" }
%"class.std::__shared_ptr.229" = type { ptr, %"class.std::__shared_count" }
%"class.std::function.231" = type { %"class.std::_Function_base", ptr }
%"class.std::unordered_map.233" = type { %"class.std::_Hashtable.234" }
%"class.std::_Hashtable.234" = type { ptr, i64, %"struct.std::__detail::_Hash_node_base", i64, %"struct.std::__detail::_Prime_rehash_policy", ptr }
%struct.CloseData = type { ptr, ptr, ptr }
%struct.uv_handle_s = type { ptr, ptr, i32, ptr, %struct.uv__queue, %union.anon.317, ptr, i32 }
%union.anon.317 = type { [4 x ptr] }

; Function Attrs: mustprogress nounwind uwtable
define linkonce_odr dso_local noundef ptr @_ZZN4node11Environment11CloseHandleI11uv_handle_sPFvPS2_EEEvPT_T0_ENKUlS3_E_cvS5_Ev(ptr noundef nonnull align 1 dereferenceable(1) %this) #4 comdat align 2 {
entry:
  %this.addr = alloca ptr, align 8
  store ptr %this, ptr %this.addr, align 8
  ret ptr @_ZZN4node11Environment11CloseHandleI11uv_handle_sPFvPS2_EEEvPT_T0_ENUlS3_E_8__invokeES3_
}

; Function Attrs: mustprogress nounwind uwtable
define linkonce_odr dso_local void @_ZN4node11Environment11CloseHandleI11uv_handle_sPFvPS2_EEEvPT_T0_(ptr noundef nonnull align 8 dereferenceable(2872) %this, ptr noundef %handle, ptr noundef %callback) #4 comdat align 2 {
entry:
  %this.addr = alloca ptr, align 8
  %handle.addr = alloca ptr, align 8
  %callback.addr = alloca ptr, align 8
  %ref.tmp = alloca %class.anon, align 1
  store ptr %this, ptr %this.addr, align 8
  store ptr %handle, ptr %handle.addr, align 8
  store ptr %callback, ptr %callback.addr, align 8
  %this1 = load ptr, ptr %this.addr, align 8
  %handle_cleanup_waiting_ = getelementptr inbounds %"class.node::Environment", ptr %this1, i32 0, i32 72
  %0 = load i32, ptr %handle_cleanup_waiting_, align 8
  %inc = add nsw i32 %0, 1
  store i32 %inc, ptr %handle_cleanup_waiting_, align 8
  %call = call noalias noundef nonnull ptr @_Znwm(i64 noundef 24) #12
  %env = getelementptr inbounds %struct.CloseData, ptr %call, i32 0, i32 0
  store ptr %this1, ptr %env, align 16
  %callback2 = getelementptr inbounds %struct.CloseData, ptr %call, i32 0, i32 1
  %1 = load ptr, ptr %callback.addr, align 8
  store ptr %1, ptr %callback2, align 8
  %original_data = getelementptr inbounds %struct.CloseData, ptr %call, i32 0, i32 2
  %2 = load ptr, ptr %handle.addr, align 8
  %data = getelementptr inbounds %struct.uv_handle_s, ptr %2, i32 0, i32 0
  %3 = load ptr, ptr %data, align 8
  store ptr %3, ptr %original_data, align 16
  %4 = load ptr, ptr %handle.addr, align 8
  %data3 = getelementptr inbounds %struct.uv_handle_s, ptr %4, i32 0, i32 0
  store ptr %call, ptr %data3, align 8
  %5 = load ptr, ptr %handle.addr, align 8
  %call4 = call noundef ptr @_ZZN4node11Environment11CloseHandleI11uv_handle_sPFvPS2_EEEvPT_T0_ENKUlS3_E_cvS5_Ev(ptr noundef nonnull align 1 dereferenceable(1) %ref.tmp) #3
  call void @uv_close(ptr noundef %5, ptr noundef %call4)
  ret void
}

; Function Attrs: mustprogress nounwind uwtable
define dso_local void @_ZN4node9TimerWrap5CloseEv(ptr noundef nonnull align 8 dereferenceable(200) %this) #4 align 2 {
entry:
  %this.addr = alloca ptr, align 8
  store ptr %this, ptr %this.addr, align 8
  %this1 = load ptr, ptr %this.addr, align 8
  %timer_ = getelementptr inbounds %"class.node::TimerWrap", ptr %this1, i32 0, i32 3
  %data = getelementptr inbounds %struct.uv_timer_s, ptr %timer_, i32 0, i32 0
  store ptr null, ptr %data, align 8
  %env_ = getelementptr inbounds %"class.node::TimerWrap", ptr %this1, i32 0, i32 1
  %0 = load ptr, ptr %env_, align 8
  %timer_2 = getelementptr inbounds %"class.node::TimerWrap", ptr %this1, i32 0, i32 3
  call void @_ZN4node11Environment11CloseHandleI11uv_handle_sPFvPS2_EEEvPT_T0_(ptr noundef nonnull align 8 dereferenceable(2872) %0, ptr noundef %timer_2, ptr noundef @_ZN4node9TimerWrap13TimerClosedCbEP11uv_handle_s)
  ret void
}