; Function Attrs: mustprogress nounwind uwtable
define dso_local void @_ZN4node9TimerWrap5CloseEv(ptr noundef nonnull align 8 dereferenceable(200) %this) local_unnamed_addr #3 align 2 {
entry:
  %timer_ = getelementptr inbounds i8, ptr %this, i64 48
  store ptr null, ptr %timer_, align 8
  %env_ = getelementptr inbounds i8, ptr %this, i64 8
  %0 = load ptr, ptr %env_, align 8
  %handle_cleanup_waiting_.i = getelementptr inbounds i8, ptr %0, i64 2232
  %1 = load i32, ptr %handle_cleanup_waiting_.i, align 8
  %inc.i = add nsw i32 %1, 1
  store i32 %inc.i, ptr %handle_cleanup_waiting_.i, align 8
  %call.i = tail call noalias noundef nonnull dereferenceable(24) ptr @_Znwm(i64 noundef 24) #14
  store ptr %0, ptr %call.i, align 16
  %callback2.i = getelementptr inbounds i8, ptr %call.i, i64 8
  store ptr @_ZN4node9TimerWrap13TimerClosedCbEP11uv_handle_s, ptr %callback2.i, align 8
  %original_data.i = getelementptr inbounds i8, ptr %call.i, i64 16
  %2 = load ptr, ptr %timer_, align 8
  store ptr %2, ptr %original_data.i, align 16
  store ptr %call.i, ptr %timer_, align 8
  tail call void @uv_close(ptr noundef nonnull %timer_, ptr noundef nonnull @_ZZN4node11Environment11CloseHandleI11uv_handle_sPFvPS2_EEEvPT_T0_ENUlS3_E_8__invokeES3_) #13
  ret void
}